target datalayout = "e-m:e-p270:32:32-p271:32:32-p272:64:64-i64:64-i128:128-f80:128-n8:16:32:64-S128"
target triple = "x86_64-pc-linux-gnu"

%struct.BEValue = type { i8, i32, ptr, ptr, ptr }
%struct.GenContext_ = type { i8, ptr, ptr, ptr, ptr, ptr, ptr, ptr, ptr, ptr, ptr, ptr, ptr, ptr, ptr, ptr, ptr, ptr, ptr, ptr, ptr, ptr, ptr, ptr, ptr, ptr, ptr, ptr, ptr, ptr, ptr, ptr, ptr, %struct.anon.85, i32, i32, %struct.DebugContext, ptr, ptr, ptr, %struct.BEValue, i8, %union.SourceSpan, ptr, ptr, ptr, ptr }
%struct.anon.85 = type { ptr, ptr, ptr }
%struct.DebugContext = type { i16, ptr, ptr, %struct.DebugFile_, ptr, ptr, ptr, ptr }
%struct.DebugFile_ = type { i16, ptr }
%union.SourceSpan = type { i64 }
%struct.Expr_ = type { ptr, %union.SourceSpan, i16, %union.anon.29 }
%union.anon.29 = type { %struct.ExprAnySwitch }
%struct.ExprAnySwitch = type { i8, %union.anon.31 }
%union.anon.31 = type { %struct.anon.32 }
%struct.anon.32 = type { ptr, %union.SourceSpan, ptr }
%struct.VHeader_ = type { i32, i32, [0 x i8] }

@type_bool = external global ptr, align 8
@.str.73 = private unnamed_addr constant [10 x i8] c"end_chain\00", align 1
@.str.74 = private unnamed_addr constant [11 x i8] c"fail_chain\00", align 1
@.str.75 = private unnamed_addr constant [11 x i8] c"chain_next\00", align 1
@.str.76 = private unnamed_addr constant [10 x i8] c"chain.phi\00", align 1

; Function Attrs: nounwind uwtable
define dso_local void @llvm_emit_try_unwrap_chain(ptr noundef %0, ptr noundef %1, ptr noundef %2) #0 {
  %4 = alloca ptr, align 8
  %5 = alloca i32, align 4
  %6 = alloca ptr, align 8
  %7 = alloca ptr, align 8
  %8 = alloca ptr, align 8
  %9 = alloca ptr, align 8
  %10 = alloca ptr, align 8
  %11 = alloca ptr, align 8
  %12 = alloca i32, align 4
  %13 = alloca ptr, align 8
  %14 = alloca ptr, align 8
  %15 = alloca ptr, align 8
  %16 = alloca i32, align 4
  %17 = alloca ptr, align 8
  %18 = alloca %struct.BEValue, align 8
  %19 = alloca ptr, align 8
  %20 = alloca [2 x ptr], align 16
  %21 = alloca [2 x ptr], align 16
  store ptr %0, ptr %8, align 8
  store ptr %1, ptr %9, align 8
  store ptr %2, ptr %10, align 8
  %22 = load ptr, ptr %10, align 8
  %23 = getelementptr inbounds %struct.Expr_, ptr %22, i32 0, i32 3
  %24 = load ptr, ptr %23, align 8
  store ptr %24, ptr %11, align 8
  %25 = load ptr, ptr %11, align 8
  store ptr %25, ptr %6, align 8
  %26 = load ptr, ptr %6, align 8
  %27 = icmp ne ptr %26, null
  br i1 %27, label %29, label %28

28:                                               ; preds = %3
  store i32 0, ptr %5, align 4
  br label %34

29:                                               ; preds = %3
  %30 = load ptr, ptr %6, align 8
  store ptr %30, ptr %7, align 8
  %31 = load ptr, ptr %7, align 8
  %32 = getelementptr inbounds %struct.VHeader_, ptr %31, i64 -1
  %33 = load i32, ptr %32, align 4
  store i32 %33, ptr %5, align 4
  br label %34

34:                                               ; preds = %29, %28
  %35 = load i32, ptr %5, align 4
  store i32 %35, ptr %12, align 4
  store ptr null, ptr %13, align 8
  %36 = load ptr, ptr %8, align 8
  %37 = call ptr @llvm_basic_block_new(ptr noundef %36, ptr noundef @.str.73)
  store ptr %37, ptr %14, align 8
  %38 = load ptr, ptr %8, align 8
  %39 = call ptr @llvm_basic_block_new(ptr noundef %38, ptr noundef @.str.74)
  store ptr %39, ptr %15, align 8
  %40 = load i32, ptr %12, align 4
  %41 = icmp eq i32 %40, 1
  br i1 %41, label %42, label %48

42:                                               ; preds = %34
  %43 = load ptr, ptr %8, align 8
  %44 = load ptr, ptr %9, align 8
  %45 = load ptr, ptr %11, align 8
  %46 = getelementptr inbounds ptr, ptr %45, i64 0
  %47 = load ptr, ptr %46, align 8
  call void @llvm_emit_expr(ptr noundef %43, ptr noundef %44, ptr noundef %47)
  br label %117

48:                                               ; preds = %34
  store i32 0, ptr %16, align 4
  br label %49

49:                                               ; preds = %74, %48
  %50 = load i32, ptr %16, align 4
  %51 = load i32, ptr %12, align 4
  %52 = icmp ult i32 %50, %51
  br i1 %52, label %53, label %77

53:                                               ; preds = %49
  %54 = load ptr, ptr %13, align 8
  %55 = icmp ne ptr %54, null
  br i1 %55, label %56, label %61

56:                                               ; preds = %53
  %57 = load ptr, ptr %8, align 8
  %58 = load ptr, ptr %13, align 8
  call void @llvm_emit_br(ptr noundef %57, ptr noundef %58)
  %59 = load ptr, ptr %8, align 8
  %60 = load ptr, ptr %13, align 8
  call void @llvm_emit_block(ptr noundef %59, ptr noundef %60)
  br label %61

61:                                               ; preds = %56, %53
  %62 = load ptr, ptr %8, align 8
  %63 = call ptr @llvm_basic_block_new(ptr noundef %62, ptr noundef @.str.75)
  store ptr %63, ptr %13, align 8
  %64 = load ptr, ptr %11, align 8
  %65 = load i32, ptr %16, align 4
  %66 = zext i32 %65 to i64
  %67 = getelementptr inbounds ptr, ptr %64, i64 %66
  %68 = load ptr, ptr %67, align 8
  store ptr %68, ptr %17, align 8
  %69 = load ptr, ptr %8, align 8
  %70 = load ptr, ptr %17, align 8
  call void @llvm_emit_expr(ptr noundef %69, ptr noundef %18, ptr noundef %70)
  %71 = load ptr, ptr %8, align 8
  %72 = load ptr, ptr %13, align 8
  %73 = load ptr, ptr %15, align 8
  call void @llvm_emit_cond_br(ptr noundef %71, ptr noundef %18, ptr noundef %72, ptr noundef %73)
  br label %74

74:                                               ; preds = %61
  %75 = load i32, ptr %16, align 4
  %76 = add i32 %75, 1
  store i32 %76, ptr %16, align 4
  br label %49, !llvm.loop !37

77:                                               ; preds = %49
  %78 = load ptr, ptr %8, align 8
  %79 = load ptr, ptr %13, align 8
  call void @llvm_emit_block(ptr noundef %78, ptr noundef %79)
  %80 = load ptr, ptr %8, align 8
  %81 = load ptr, ptr %14, align 8
  call void @llvm_emit_br(ptr noundef %80, ptr noundef %81)
  %82 = load ptr, ptr %8, align 8
  %83 = load ptr, ptr %15, align 8
  call void @llvm_emit_block(ptr noundef %82, ptr noundef %83)
  %84 = load ptr, ptr %8, align 8
  %85 = load ptr, ptr %14, align 8
  call void @llvm_emit_br(ptr noundef %84, ptr noundef %85)
  br label %86

86:                                               ; preds = %77
  %87 = load ptr, ptr %8, align 8
  %88 = load ptr, ptr %14, align 8
  call void @llvm_emit_block(ptr noundef %87, ptr noundef %88)
  %89 = load ptr, ptr %8, align 8
  %90 = getelementptr inbounds %struct.GenContext_, ptr %89, i32 0, i32 8
  %91 = load ptr, ptr %90, align 8
  %92 = load ptr, ptr %8, align 8
  %93 = getelementptr inbounds %struct.GenContext_, ptr %92, i32 0, i32 20
  %94 = load ptr, ptr %93, align 8
  %95 = call ptr @LLVMBuildPhi(ptr noundef %91, ptr noundef %94, ptr noundef @.str.76)
  store ptr %95, ptr %19, align 8
  %96 = getelementptr inbounds [2 x ptr], ptr %20, i64 0, i64 0
  %97 = load ptr, ptr %8, align 8
  %98 = getelementptr inbounds %struct.GenContext_, ptr %97, i32 0, i32 20
  %99 = load ptr, ptr %98, align 8
  %100 = call ptr @LLVMConstInt(ptr noundef %99, i64 noundef 1, i32 noundef 0)
  store ptr %100, ptr %96, align 8
  %101 = getelementptr inbounds ptr, ptr %96, i64 1
  %102 = load ptr, ptr %8, align 8
  %103 = getelementptr inbounds %struct.GenContext_, ptr %102, i32 0, i32 20
  %104 = load ptr, ptr %103, align 8
  store ptr %104, ptr %4, align 8
  %105 = load ptr, ptr %4, align 8
  %106 = call ptr @LLVMConstNull(ptr noundef %105) #8
  store ptr %106, ptr %101, align 8
  %107 = getelementptr inbounds [2 x ptr], ptr %21, i64 0, i64 0
  %108 = load ptr, ptr %13, align 8
  store ptr %108, ptr %107, align 8
  %109 = getelementptr inbounds ptr, ptr %107, i64 1
  %110 = load ptr, ptr %15, align 8
  store ptr %110, ptr %109, align 8
  %111 = load ptr, ptr %19, align 8
  %112 = getelementptr inbounds [2 x ptr], ptr %20, i64 0, i64 0
  %113 = getelementptr inbounds [2 x ptr], ptr %21, i64 0, i64 0
  call void @LLVMAddIncoming(ptr noundef %111, ptr noundef %112, ptr noundef %113, i32 noundef 2)
  %114 = load ptr, ptr %9, align 8
  %115 = load ptr, ptr %19, align 8
  %116 = load ptr, ptr @type_bool, align 8
  call void @llvm_value_set(ptr noundef %114, ptr noundef %115, ptr noundef %116)
  br label %117

117:                                              ; preds = %86, %42
  ret void
}