; Function Attrs: nounwind uwtable
define dso_local void @llvm_emit_try_unwrap_chain(ptr noundef %0, ptr noundef %1, ptr nocapture noundef readonly %2) local_unnamed_addr #0 {
  %4 = alloca %struct.BEValue, align 8
  %5 = alloca [2 x ptr], align 16
  %6 = alloca [2 x ptr], align 16
  %7 = getelementptr inbounds i8, ptr %2, i64 24
  %8 = load ptr, ptr %7, align 8
  %.not = icmp eq ptr %8, null
  br i1 %.not, label %12, label %9

9:                                                ; preds = %3
  %10 = getelementptr inbounds i8, ptr %8, i64 -8
  %11 = load i32, ptr %10, align 4
  br label %12

12:                                               ; preds = %3, %9
  %.0 = phi i32 [ %11, %9 ], [ 0, %3 ]
  %13 = tail call ptr @llvm_basic_block_new(ptr noundef %0, ptr noundef nonnull @.str.73) #10
  %14 = tail call ptr @llvm_basic_block_new(ptr noundef %0, ptr noundef nonnull @.str.74) #10
  switch i32 %.0, label %.lr.ph.preheader [
    i32 1, label %15
    i32 0, label %._crit_edge
  ]

.lr.ph.preheader:                                 ; preds = %12
  %wide.trip.count = zext i32 %.0 to i64
  br label %.lr.ph

15:                                               ; preds = %12
  %16 = load ptr, ptr %8, align 8
  tail call void @llvm_emit_expr(ptr noundef %0, ptr noundef %1, ptr noundef %16)
  br label %34

.lr.ph:                                           ; preds = %.lr.ph.preheader, %18
  %indvars.iv = phi i64 [ 0, %.lr.ph.preheader ], [ %indvars.iv.next, %18 ]
  %.04752 = phi ptr [ null, %.lr.ph.preheader ], [ %19, %18 ]
  %.not50 = icmp eq ptr %.04752, null
  br i1 %.not50, label %18, label %17

17:                                               ; preds = %.lr.ph
  call void @llvm_emit_br(ptr noundef %0, ptr noundef nonnull %.04752) #10
  call void @llvm_emit_block(ptr noundef %0, ptr noundef nonnull %.04752) #10
  br label %18

18:                                               ; preds = %17, %.lr.ph
  %19 = call ptr @llvm_basic_block_new(ptr noundef %0, ptr noundef nonnull @.str.75) #10
  %20 = getelementptr inbounds ptr, ptr %8, i64 %indvars.iv
  %21 = load ptr, ptr %20, align 8
  call void @llvm_emit_expr(ptr noundef %0, ptr noundef nonnull %4, ptr noundef %21)
  call void @llvm_emit_cond_br(ptr noundef %0, ptr noundef nonnull %4, ptr noundef %19, ptr noundef %14) #10
  %indvars.iv.next = add nuw nsw i64 %indvars.iv, 1
  %exitcond.not = icmp eq i64 %indvars.iv.next, %wide.trip.count
  br i1 %exitcond.not, label %._crit_edge, label %.lr.ph, !llvm.loop !52

._crit_edge:                                      ; preds = %18, %12
  %.047.lcssa = phi ptr [ null, %12 ], [ %19, %18 ]
  call void @llvm_emit_block(ptr noundef %0, ptr noundef %.047.lcssa) #10
  call void @llvm_emit_br(ptr noundef %0, ptr noundef %13) #10
  call void @llvm_emit_block(ptr noundef %0, ptr noundef %14) #10
  call void @llvm_emit_br(ptr noundef %0, ptr noundef %13) #10
  call void @llvm_emit_block(ptr noundef %0, ptr noundef %13) #10
  %22 = getelementptr inbounds i8, ptr %0, i64 64
  %23 = load ptr, ptr %22, align 8
  %24 = getelementptr inbounds i8, ptr %0, i64 160
  %25 = load ptr, ptr %24, align 8
  %26 = call ptr @LLVMBuildPhi(ptr noundef %23, ptr noundef %25, ptr noundef nonnull @.str.76) #10
  %27 = load ptr, ptr %24, align 8
  %28 = call ptr @LLVMConstInt(ptr noundef %27, i64 noundef 1, i32 noundef 0) #10
  store ptr %28, ptr %5, align 16
  %29 = getelementptr inbounds i8, ptr %5, i64 8
  %30 = load ptr, ptr %24, align 8
  %31 = call ptr @LLVMConstNull(ptr noundef %30) #10
  store ptr %31, ptr %29, align 8
  store ptr %.047.lcssa, ptr %6, align 16
  %32 = getelementptr inbounds i8, ptr %6, i64 8
  store ptr %14, ptr %32, align 8
  call void @LLVMAddIncoming(ptr noundef %26, ptr noundef nonnull %5, ptr noundef nonnull %6, i32 noundef 2) #10
  %33 = load ptr, ptr @type_bool, align 8
  call void @llvm_value_set(ptr noundef %1, ptr noundef %26, ptr noundef %33) #10
  br label %34

34:                                               ; preds = %._crit_edge, %15
  ret void
}